; Function Attrs: mustprogress uwtable
define internal fastcc void @_ZN4heapIN12_GLOBAL__N_119theory_aware_act_ltEE6insertEi(ptr noundef nonnull align 8 dereferenceable(32) %this, i32 noundef %val) unnamed_addr #3 align 2 {
entry:
  %m_values = getelementptr inbounds i8, ptr %this, i64 16
  %0 = load ptr, ptr %m_values, align 8
  %cmp.i = icmp eq ptr %0, null
  br i1 %cmp.i, label %_ZNK6vectorIiLb0EjE4sizeEv.exit, label %if.end.i

if.end.i:                                         ; preds = %entry
  %arrayidx.i = getelementptr inbounds i8, ptr %0, i64 -4
  %1 = load i32, ptr %arrayidx.i, align 4
  br label %_ZNK6vectorIiLb0EjE4sizeEv.exit

_ZNK6vectorIiLb0EjE4sizeEv.exit:                  ; preds = %entry, %if.end.i
  %retval.0.i = phi i32 [ %1, %if.end.i ], [ 0, %entry ]
  %m_value2indices = getelementptr inbounds i8, ptr %this, i64 24
  %2 = load ptr, ptr %m_value2indices, align 8
  %idxprom.i = zext i32 %val to i64
  %arrayidx.i2 = getelementptr inbounds i32, ptr %2, i64 %idxprom.i
  store i32 %retval.0.i, ptr %arrayidx.i2, align 4
  %3 = load ptr, ptr %m_values, align 8
  %cmp.i3 = icmp eq ptr %3, null
  br i1 %cmp.i3, label %if.then.i, label %lor.lhs.false.i

lor.lhs.false.i:                                  ; preds = %_ZNK6vectorIiLb0EjE4sizeEv.exit
  %arrayidx.i4 = getelementptr inbounds i8, ptr %3, i64 -4
  %4 = load i32, ptr %arrayidx.i4, align 4
  %arrayidx4.i = getelementptr inbounds i8, ptr %3, i64 -8
  %5 = load i32, ptr %arrayidx4.i, align 4
  %cmp5.i = icmp eq i32 %4, %5
  br i1 %cmp5.i, label %if.then.i, label %_ZN6vectorIiLb0EjE9push_backERKi.exit

if.then.i:                                        ; preds = %lor.lhs.false.i, %_ZNK6vectorIiLb0EjE4sizeEv.exit
  tail call void @_ZN6vectorIiLb0EjE13expand_vectorEv(ptr noundef nonnull align 8 dereferenceable(8) %m_values)
  %.pre.i = load ptr, ptr %m_values, align 8
  %arrayidx8.phi.trans.insert.i = getelementptr inbounds i8, ptr %.pre.i, i64 -4
  %.pre1.i = load i32, ptr %arrayidx8.phi.trans.insert.i, align 4
  br label %_ZN6vectorIiLb0EjE9push_backERKi.exit

_ZN6vectorIiLb0EjE9push_backERKi.exit:            ; preds = %lor.lhs.false.i, %if.then.i
  %6 = phi i32 [ %.pre1.i, %if.then.i ], [ %4, %lor.lhs.false.i ]
  %7 = phi ptr [ %.pre.i, %if.then.i ], [ %3, %lor.lhs.false.i ]
  %idx.ext.i = zext i32 %6 to i64
  %add.ptr.i = getelementptr inbounds i32, ptr %7, i64 %idx.ext.i
  store i32 %val, ptr %add.ptr.i, align 4
  %8 = load ptr, ptr %m_values, align 8
  %arrayidx10.i = getelementptr inbounds i8, ptr %8, i64 -4
  %9 = load i32, ptr %arrayidx10.i, align 4
  %inc.i = add i32 %9, 1
  store i32 %inc.i, ptr %arrayidx10.i, align 4
  %10 = load ptr, ptr %m_values, align 8
  %idxprom.i.i = zext i32 %retval.0.i to i64
  %arrayidx.i.i = getelementptr inbounds i32, ptr %10, i64 %idxprom.i.i
  %11 = load i32, ptr %arrayidx.i.i, align 4
  %cmp29.i = icmp ult i32 %retval.0.i, 2
  br i1 %cmp29.i, label %_ZN4heapIN12_GLOBAL__N_119theory_aware_act_ltEE7move_upEi.exit, label %lor.lhs.false.lr.ph.i

lor.lhs.false.lr.ph.i:                            ; preds = %_ZN6vectorIiLb0EjE9push_backERKi.exit
  %12 = getelementptr inbounds i8, ptr %this, i64 8
  br label %lor.lhs.false.i6

lor.lhs.false.i6:                                 ; preds = %if.end.i7, %lor.lhs.false.lr.ph.i
  %idx.addr.030.i = phi i32 [ %retval.0.i, %lor.lhs.false.lr.ph.i ], [ %shr.i31.i, %if.end.i7 ]
  %shr.i31.i = ashr i32 %idx.addr.030.i, 1
  %13 = load ptr, ptr %m_values, align 8
  %idxprom.i14.i = zext i32 %shr.i31.i to i64
  %arrayidx.i15.i = getelementptr inbounds i32, ptr %13, i64 %idxprom.i14.i
  %14 = load i32, ptr %arrayidx.i15.i, align 4
  %this.val.i = load ptr, ptr %this, align 8
  %this.val12.i = load ptr, ptr %12, align 8
  %this.val12.val.i = load ptr, ptr %this.val12.i, align 8
  %15 = getelementptr i8, ptr %this.val12.i, i64 8
  %this.val12.val13.i = load i32, ptr %15, align 8
  %call5.i = tail call fastcc noundef zeroext i1 @_ZNK4heapIN12_GLOBAL__N_119theory_aware_act_ltEE9less_thanEii(ptr %this.val.i, ptr %this.val12.val.i, i32 %this.val12.val13.i, i32 noundef %11, i32 noundef %14)
  %idxprom.i18.i = zext i32 %idx.addr.030.i to i64
  br i1 %call5.i, label %if.end.i7, label %_ZN4heapIN12_GLOBAL__N_119theory_aware_act_ltEE7move_upEi.exit

if.end.i7:                                        ; preds = %lor.lhs.false.i6
  %arrayidx.i19.i = getelementptr inbounds i32, ptr %13, i64 %idxprom.i18.i
  store i32 %14, ptr %arrayidx.i19.i, align 4
  %16 = load ptr, ptr %m_values, align 8
  %arrayidx.i21.i = getelementptr inbounds i32, ptr %16, i64 %idxprom.i18.i
  %17 = load i32, ptr %arrayidx.i21.i, align 4
  %18 = load ptr, ptr %m_value2indices, align 8
  %idxprom.i22.i = zext i32 %17 to i64
  %arrayidx.i23.i = getelementptr inbounds i32, ptr %18, i64 %idxprom.i22.i
  store i32 %idx.addr.030.i, ptr %arrayidx.i23.i, align 4
  %cmp.i8 = icmp ult i32 %shr.i31.i, 2
  br i1 %cmp.i8, label %if.end.while.end.loopexit_crit_edge.i, label %lor.lhs.false.i6, !llvm.loop !39

if.end.while.end.loopexit_crit_edge.i:            ; preds = %if.end.i7
  %.pre.pre.i = load ptr, ptr %m_values, align 8
  br label %_ZN4heapIN12_GLOBAL__N_119theory_aware_act_ltEE7move_upEi.exit

_ZN4heapIN12_GLOBAL__N_119theory_aware_act_ltEE7move_upEi.exit: ; preds = %lor.lhs.false.i6, %_ZN6vectorIiLb0EjE9push_backERKi.exit, %if.end.while.end.loopexit_crit_edge.i
  %idxprom.i24.pre-phi.i = phi i64 [ %idxprom.i.i, %_ZN6vectorIiLb0EjE9push_backERKi.exit ], [ %idxprom.i14.i, %if.end.while.end.loopexit_crit_edge.i ], [ %idxprom.i18.i, %lor.lhs.false.i6 ]
  %19 = phi ptr [ %10, %_ZN6vectorIiLb0EjE9push_backERKi.exit ], [ %.pre.pre.i, %if.end.while.end.loopexit_crit_edge.i ], [ %13, %lor.lhs.false.i6 ]
  %idx.addr.0.lcssa.i = phi i32 [ %retval.0.i, %_ZN6vectorIiLb0EjE9push_backERKi.exit ], [ %shr.i31.i, %if.end.while.end.loopexit_crit_edge.i ], [ %idx.addr.030.i, %lor.lhs.false.i6 ]
  %arrayidx.i25.i = getelementptr inbounds i32, ptr %19, i64 %idxprom.i24.pre-phi.i
  store i32 %11, ptr %arrayidx.i25.i, align 4
  %20 = load ptr, ptr %m_value2indices, align 8
  %idxprom.i26.i = zext i32 %11 to i64
  %arrayidx.i27.i = getelementptr inbounds i32, ptr %20, i64 %idxprom.i26.i
  store i32 %idx.addr.0.lcssa.i, ptr %arrayidx.i27.i, align 4
  ret void
}